; Function Attrs: nounwind uwtable
define ptr @l_Lean_Compiler_LCNF_collectLocalDeclsArgs(ptr noundef %0, ptr noundef readonly captures(none) %1) local_unnamed_addr #1 {
lean_nat_lt.exit:
  %2 = getelementptr i8, ptr %1, i64 8
  %.val = load i64, ptr %2, align 8, !tbaa !12
  %.mask = and i64 %.val, 9223372036854775807
  %.not = icmp eq i64 %.mask, 0
  br i1 %.not, label %lean_dec.exit19, label %.lr.ph.i

.lr.ph.i:                                         ; preds = %lean_nat_lt.exit
  %3 = getelementptr inbounds nuw i8, ptr %1, i64 24
  br label %4

4:                                                ; preds = %24, %.lr.ph.i
  %.01529.i = phi i64 [ 0, %.lr.ph.i ], [ %26, %24 ]
  %.01728.i = phi ptr [ %0, %.lr.ph.i ], [ %25, %24 ]
  %5 = getelementptr inbounds nuw [0 x ptr], ptr %3, i64 0, i64 %.01529.i
  %6 = load ptr, ptr %5, align 8, !tbaa !9
  %7 = ptrtoint ptr %6 to i64
  %8 = and i64 %7, 1
  %.not.i19.i = icmp eq i64 %8, 0
  br i1 %.not.i19.i, label %9, label %lean_array_uget.exit.i

9:                                                ; preds = %4
  %.val.i.i.i = load i32, ptr %6, align 4, !tbaa !4
  %10 = icmp sgt i32 %.val.i.i.i, 0
  br i1 %10, label %11, label %13, !prof !11

11:                                               ; preds = %9
  %12 = add nuw i32 %.val.i.i.i, 1
  store i32 %12, ptr %6, align 4, !tbaa !4
  br label %16

13:                                               ; preds = %9
  %.not.i.i.i = icmp eq i32 %.val.i.i.i, 0
  br i1 %.not.i.i.i, label %16, label %14

14:                                               ; preds = %13
  tail call void @lean_inc_ref_cold(ptr noundef nonnull %6) #4
  br label %16

lean_array_uget.exit.i:                           ; preds = %4
  %15 = tail call ptr @l_Lean_Compiler_LCNF_collectLocalDeclsArg(ptr noundef %.01728.i, ptr noundef %6)
  br label %24

16:                                               ; preds = %14, %13, %11
  %17 = tail call ptr @l_Lean_Compiler_LCNF_collectLocalDeclsArg(ptr noundef %.01728.i, ptr noundef nonnull %6)
  %18 = load i32, ptr %6, align 4, !tbaa !4
  %19 = icmp sgt i32 %18, 1
  br i1 %19, label %20, label %22, !prof !11

20:                                               ; preds = %16
  %21 = add nsw i32 %18, -1
  store i32 %21, ptr %6, align 4, !tbaa !4
  br label %24

22:                                               ; preds = %16
  %.not.i.i = icmp eq i32 %18, 0
  br i1 %.not.i.i, label %24, label %23

23:                                               ; preds = %22
  tail call void @lean_dec_ref_cold(ptr noundef nonnull %6) #4
  br label %24

24:                                               ; preds = %23, %22, %20, %lean_array_uget.exit.i
  %25 = phi ptr [ %15, %lean_array_uget.exit.i ], [ %17, %20 ], [ %17, %22 ], [ %17, %23 ]
  %26 = add nuw nsw i64 %.01529.i, 1
  %.not.i27 = icmp eq i64 %26, %.mask
  br i1 %.not.i27, label %lean_dec.exit19, label %4

lean_dec.exit19:                                  ; preds = %24, %lean_nat_lt.exit
  %.0 = phi ptr [ %0, %lean_nat_lt.exit ], [ %25, %24 ]
  ret ptr %.0
}